(dp1
S'1sigma'
p2
(dp3
S'2t'
p4
(dp5
F0.5
cnumpy.core.multiarray
scalar
p6
(cnumpy
dtype
p7
(S'f8'
I0
I1
tRp8
(I3
S'<'
NNNI-1
I-1
I0
tbS'\xd9\xb7A\xd83/\xe0?'
tRp9
sF0.90000000000000002
g6
(g8
S'=\x1f}\x95\xecR\xe2?'
tRp10
sS'median'
p11
F0.50577071669657125
ssS'1p5t'
p12
(dp13
F0.5
g6
(g8
S'xN\xd6s\xf6\xff\xcd?'
tRp14
sF0.90000000000000002
g6
(g8
S'\xf3\x9c\x0b_\xe9\xb6\xd0?'
tRp15
sg11
F0.2343901912462468
ssS'2p5t'
p16
(dp17
F0.5
g6
(g8
S'\x04\x9b\xeffW\xc1\xef?'
tRp18
sF0.90000000000000002
g6
(g8
S'`o\xd5\xbc\x1f\x0b\xf2?'
tRp19
sg11
F0.99226142637669401
ssS'fv'
p20
(dp21
F0.5
g6
(g8
S')\xe0s\xf3d\xba\x13@'
tRp22
sF0.90000000000000002
g6
(g8
S'Z\xee\xd4\x07\xb9\xd2\x16@'
tRp23
sg11
F4.9321411448945893
ssS'3t'
p24
(dp25
F0.5
g6
(g8
S'T\x10\xf8\x0c\xf9\x16\xfd?'
tRp26
sF0.90000000000000002
g6
(g8
S'K\xc2\xb03\xd9\x80\x00@'
tRp27
sg11
F1.8181576304884008
ssS'3p5t'
p28
(dp29
F0.5
g6
(g8
S'\xfb\x14>>D\xc8\x0e@'
tRp30
sF0.90000000000000002
g6
(g8
S'\x1a+\x842\xd5\x82\x11@'
tRp31
sg11
F3.8475631499927458
ssS'0p5t'
p32
(dp33
F0.5
g6
(g8
S'\xb3\xf0\xe6\xe1\xbd\xaf\x9a?'
tRp34
sF0.90000000000000002
g6
(g8
S'\x0c\x06\x14O]\xf5\x9d?'
tRp35
sg11
F0.026061730447809815
ssS'1t'
p36
(dp37
F0.5
g6
(g8
S'\xec3*\xf3"t\xbb?'
tRp38
sF0.90000000000000002
g6
(g8
S'\xf6@\xbd\xc4sR\xbe?'
tRp39
sg11
F0.10723683932023195
sssS'fwhm'
p40
(dp41
g4
(dp42
F0.5
g6
(g8
S'l\xbe\x88V\xaeo\xe3?'
tRp43
sF0.90000000000000002
g6
(g8
S'j\xa7\x1a\xec>\xd5\xe5?'
tRp44
sg11
F0.60738161260905221
ssg12
(dp45
F0.5
g6
(g8
S'_\xf4\xa1\x84+\x19\xd2?'
tRp46
sF0.90000000000000002
g6
(g8
S'-f\xbe$\x83\xf9\xd3?'
tRp47
sg11
F0.28278518072071018
ssg16
(dp48
F0.5
g6
(g8
S'\x06\x8d\x99Q\xce\xbf\xf2?'
tRp49
sF0.90000000000000002
g6
(g8
S'\x1cZ\xb7A\x1e5\xf5?'
tRp50
sg11
F1.1718427965932592
ssg20
(dp51
F0.5
g6
(g8
S'\xd1(\xce\x8b\xef\x04\x17@'
tRp52
sF0.90000000000000002
g6
(g8
S'\xe7\x1c*X\xec~\x1a@'
tRp53
sg11
F5.7538087416264254
ssg24
(dp54
F0.5
g6
(g8
S'\xeb!;\x01?\x1b\x01@'
tRp55
sF0.90000000000000002
g6
(g8
S'\xa3#91\xf2W\x03@'
tRp56
sg11
F2.1383503051073198
ssg28
(dp57
F0.5
g6
(g8
S'\x07r9+\xe4\x05\x12@'
tRp58
sF0.90000000000000002
g6
(g8
S'LU\x14\xe4\x06i\x14@'
tRp59
sg11
F4.5061904890544842
ssg32
(dp60
F0.5
g6
(g8
S"q'\x94\x92\xf6G\xa2?"
tRp61
sF0.90000000000000002
g6
(g8
S'\\`\xb6\xaclO\xa4?'
tRp62
sg11
F0.035703374814530113
ssg36
(dp63
F0.5
g6
(g8
S'Z&\xf0\x13,\x98\xc0?'
tRp64
sF0.90000000000000002
g6
(g8
S'%L\xfa]\n4\xc2?'
tRp65
sg11
F0.12964321990807137
sssS'3sigma'
p66
(dp67
g4
(dp68
F0.5
g6
(g8
S'\xce=\xffZ\xc9\xc3\xf5?'
tRp69
sF0.90000000000000002
g6
(g8
S'\xae\xf1{Xm\x8e\xf7?'
tRp70
sg11
F1.3602980276087244
ssg12
(dp71
F0.5
g6
(g8
S"\xe1'Tv\xef%\xe7?"
tRp72
sF0.90000000000000002
g6
(g8
S'\xa36x\xae\xf7\x93\xe8?'
tRp73
sg11
F0.72339476222030807
ssg16
(dp74
F0.5
g6
(g8
S'\xcd\xa7\x8c\x03\xb5\xb6\x02@'
tRp75
sF0.90000000000000002
g6
(g8
S'\x82$\x93,n\x8a\x04@'
tRp76
sg11
F2.3392287367347846
ssg20
(dp77
F0.5
g6
(g8
S'\xc7\x80Y\x0f\x80\x1b$@'
tRp78
sF0.90000000000000002
g6
(g8
S'\x83\xe9\xd5B\xbd\xa0&@'
tRp79
sg11
F10.05406738775647
ssg24
(dp80
F0.5
g6
(g8
S';i\xc1r\x90\xc9\x0f@'
tRp81
sF0.90000000000000002
g6
(g8
S'\xcb\xa3Wjj\x8d\x11@'
tRp82
sg11
F3.9734944126674212
ssg28
(dp83
F0.5
g6
(g8
S'\xccs\x06\xc8\x1d\t @'
tRp84
sF0.90000000000000002
g6
(g8
S'\x98\x06\xb6j\x90\xce!@'
tRp85
sg11
F8.0180162106296464
ssg32
(dp86
F0.5
g6
(g8
S';\x01p4(\xa5\xc2?'
tRp87
sF0.90000000000000002
g6
(g8
S'5gu\xbex\x8d\xc3?'
tRp88
sg11
F0.1456596511423755
ssg36
(dp89
F0.5
g6
(g8
S'\x15)\xd9\xb3ak\xd8?'
tRp90
sF0.90000000000000002
g6
(g8
S'\x05\xd4\x90\xde4\xb1\xd9?'
tRp91
sg11
F0.38155226395042408
sssS'2sigma'
p92
(dp93
g4
(dp94
F0.5
g6
(g8
S'\x03\xc5\x94]\xa2b\xed?'
tRp95
sF0.90000000000000002
g6
(g8
S'3\x87\xfc*&D\xf0?'
tRp96
sg11
F0.91831070654731795
ssg12
(dp97
F0.5
g6
(g8
S'\x97\x0c94\xc3\xb9\xdc?'
tRp98
sF0.90000000000000002
g6
(g8
S'\xbb\xd3lc\x912\xdf?'
tRp99
sg11
F0.44884398116879409
ssg16
(dp100
F0.5
g6
(g8
S'\x99\x89\xd3\xba\x10:\xfb?'
tRp101
sF0.90000000000000002
g6
(g8
S'\x94~T\xd3\xc8t\xfe?'
tRp102
sg11
F1.7016700888142318
ssg20
(dp103
F0.5
g6
(g8
S'\xe9\xa8U\xbb\x90\x06 @'
tRp104
sF0.90000000000000002
g6
(g8
S'\x91\xa3\x87\x96\xd4S"@'
tRp105
sg11
F8.0125356320687295
ssg24
(dp106
F0.5
g6
(g8
S'ZD\x07pc+\x08@'
tRp107
sF0.90000000000000002
g6
(g8
S'\xe3\xf1\xc6m+ \x0b@'
tRp108
sg11
F3.0211894591733075
ssg28
(dp109
F0.5
g6
(g8
S'\xce\xc3\x10D\x1dG\x19@'
tRp110
sF0.90000000000000002
g6
(g8
S'\xbb\xd0\xe9Y\xf2y\x1c@'
tRp111
sg11
F6.319850613188331
ssg32
(dp112
F0.5
g6
(g8
S'Q\xfd\xc9\xc2\x97k\xb1?'
tRp113
sF0.90000000000000002
g6
(g8
S'\x92\xe4\x1a\x19\xb0\xb5\xb2?'
tRp114
sg11
F0.068047355591545955
ssg36
(dp115
F0.5
g6
(g8
S'\xf0\xa3\x8a\x0b\x8b\xfa\xca?'
tRp116
sF0.90000000000000002
g6
(g8
S'(a\xde\x99\x8d\xfd\xcc?'
tRp117
sg11
F0.21077503515841561
sss.