(dp1
S'fwhm'
p2
(dp3
S'2t'
p4
(dp5
F0.5
F5.9500201560549657e+27
sF0.90000000000000002
cnumpy.core.multiarray
scalar
p6
(cnumpy
dtype
p7
(S'f8'
I0
I1
tRp8
(I3
S'<'
NNNI-1
I-1
I0
tbS'\xf1\xfc\xac\xc2\xc4\xf8\xe4?'
tRp9
sS'median'
p10
F0.58087994736668225
ssS'1p5t'
p11
(dp12
F0.5
F5.7391715413928357e+27
sF0.90000000000000002
g6
(g8
S'\xd7\x8cG\xe8\xa9\xbb\xd2?'
tRp13
sg10
F0.26384870588724985
ssS'2p5t'
p14
(dp15
F0.5
F5.7219867855558686e+27
sF0.90000000000000002
g6
(g8
S'\xcci\xbf\xf5\xe1\xb0\xf4?'
tRp16
sg10
F1.1398693787051233
ssS'fv'
p17
(dp18
F0.5
F4.3742022240780967e+27
sF0.90000000000000002
g6
(g8
S'\xa2\x1fs~\x00P\x1a@'
tRp19
sg10
F5.703833422508759
ssS'3t'
p20
(dp21
F0.5
F5.2880386504380069e+27
sF0.90000000000000002
g6
(g8
S'6g\xe4%i\x08\x03@'
tRp22
sg10
F2.0999031011988052
ssS'3p5t'
p23
(dp24
F0.5
F4.4427637993529139e+27
sF0.90000000000000002
g6
(g8
S'\xc3$\xb3}\xda9\x14@'
tRp25
sg10
F4.4581926847826736
ssS'0p5t'
p26
(dp27
F0.5
F3.0097065053722455e+27
sF0.90000000000000002
g6
(g8
S'.\x8b$\x0eO\x04\xa1?'
tRp28
sg10
F0.029323961418797961
ssS'1t'
p29
(dp30
F0.5
F4.7718759832270192e+27
sF0.90000000000000002
g6
(g8
S'\xb0\xb40\xdc3\x80\xc0?'
tRp31
sg10
F0.11653924564376258
sssS'1sigma'
p32
(dp33
g4
(dp34
F0.5
F5.6572841931019258e+27
sF0.90000000000000002
g6
(g8
S'\xb4\xf8\x0f4Q\xef\xe1?'
tRp35
sg10
F0.49383809809170343
ssg11
(dp36
F0.5
F5.3885369033897556e+27
sF0.90000000000000002
g6
(g8
S'\xd6\xd8\x83\xf0F#\xd0?'
tRp37
sg10
F0.22577701074849721
ssg14
(dp38
F0.5
F5.4451123768020644e+27
sF0.90000000000000002
g6
(g8
S'g\x17V4\xbb\xcc\xf1?'
tRp39
sg10
F0.97768706860709342
ssg17
(dp40
F0.5
F4.2099240782922547e+27
sF0.90000000000000002
g6
(g8
S'd\x00\x1b\xcfe\xbe\x16@'
tRp41
sg10
F4.9082329329862961
ssg20
(dp42
F0.5
F5.0743517023192676e+27
sF0.90000000000000002
g6
(g8
S'_a\x8a\xa5+\\\x00@'
tRp43
sg10
F1.7999306674129594
ssg23
(dp44
F0.5
F4.2763078958351852e+27
sF0.90000000000000002
g6
(g8
S'\xf8\xf4T2\x10n\x11@'
tRp45
sg10
F3.8250960064901927
ssg26
(dp46
F0.5
F2.7530476608635395e+27
sF0.90000000000000002
g6
(g8
S'\x98L\x83\xe5\x81\xf4\x9a?'
tRp47
sg10
F0.023189658707026904
ssg29
(dp48
F0.5
F4.4290760649875815e+27
sF0.90000000000000002
g6
(g8
S'5\xb4\xee\xa2\xc5\xc8\xbc?'
tRp49
sg10
F0.10130395962619648
sssS'3sigma'
p50
(dp51
g4
(dp52
F0.5
F5.3235096217663033e+27
sF0.90000000000000002
g6
(g8
S'].\xc8\xdct\xfd\xf9?'
tRp53
sg10
F1.5139495850926461
ssg11
(dp54
F0.5
F4.8929746852486106e+27
sF0.90000000000000002
g6
(g8
S'\xa33\x1e\xef\xdf\xde\xee?'
tRp55
sg10
F0.92058211032902815
ssg14
(dp56
F0.5
F5.4267201719186044e+27
sF0.90000000000000002
g6
(g8
S'@!\xc2Ic/\x05@'
tRp57
sg10
F2.422038009267077
ssg17
(dp58
F0.5
F4.4273334418776371e+27
sF0.90000000000000002
g6
(g8
S'\x82\xc0\x0e\x8e>\x86&@'
tRp59
sg10
F9.9870830703784108
ssg20
(dp60
F0.5
F5.2617555577631612e+27
sF0.90000000000000002
g6
(g8
S'&f\xb5\x93\x82\x8d\x11@'
tRp61
sg10
F3.9744431291646638
ssg23
(dp62
F0.5
F4.4659722622701607e+27
sF0.90000000000000002
g6
(g8
S'\xd3v\x9d1\xb3\xb5!@'
tRp63
sg10
F7.9615179623331409
ssg26
(dp64
F0.5
F3.130499926539564e+27
sF0.90000000000000002
g6
(g8
S'\xca\x9a\xe3\x00gq\xbf?'
tRp65
sg10
F0.11585536025809944
ssg29
(dp66
F0.5
F4.1439861210787633e+27
sF0.90000000000000002
g6
(g8
S'\xa8\xcf\x80l2<\xe0?'
tRp67
sg10
F0.48800842086104684
sssS'2sigma'
p68
(dp69
g4
(dp70
F0.5
F6.5487531467300443e+27
sF0.90000000000000002
g6
(g8
S'\xf8\xc8\x1d\xebU\x11\xed?'
tRp71
sg10
F0.81055179897141483
ssg11
(dp72
F0.5
F6.479483383725871e+27
sF0.90000000000000002
g6
(g8
S'\x98\x00\xc0\xa9>=\xda?'
tRp73
sg10
F0.37173436419232797
ssg14
(dp74
F0.5
F6.2698011332903584e+27
sF0.90000000000000002
g6
(g8
S'\x98\xc6\x80U\xc0^\xfc?'
tRp75
sg10
F1.5722851785863825
ssg17
(dp76
F0.5
F4.7525390503472217e+27
sF0.90000000000000002
g6
(g8
S'\x014\xe9\x8d\xeb\xf3!@'
tRp77
sg10
F7.8159839642002344
ssg20
(dp78
F0.5
F5.8076417104820534e+27
sF0.90000000000000002
g6
(g8
S';\x85<,@\xe1\t@'
tRp79
sg10
F2.8672718054968991
ssg23
(dp80
F0.5
F4.8154166441543654e+27
sF0.90000000000000002
g6
(g8
S'\x00&V\xfc\x15\xbd\x1b@'
tRp81
sg10
F6.130909690454172
ssg26
(dp82
F0.5
F3.6359519932031594e+27
sF0.90000000000000002
g6
(g8
S'\xc7\x9b\xb8|0\x05\xa8?'
tRp83
sg10
F0.041990951219976154
ssg29
(dp84
F0.5
F5.5365337466824007e+27
sF0.90000000000000002
g6
(g8
S'\xd1I\x8f(\x04"\xc6?'
tRp85
sg10
F0.15742180522477933
sss.