(dp1
S'probability'
p2
F0.5
sS'sens_unit'
p3
F1e+27
sS'disc_minos_pow'
p4
(F1.1968754396522359
F0.64937921954024824
tp5
sS'signals'
p6
(lp7
F0
aF2.5
aF5
aI10
aF20
aF40
aF80
asS'mass'
p8
I3740
sS'disc_minos'
p9
(dp10
F0.5
F0.75332865066676857
sI1
F1.2211699635927904
sI10
F5.3204818270237908
sI5
F3.4667449697209296
sF2.5
F2.105686418976664
ssS'significance'
p11
I3
sS'livetimes'
p12
(lp13
F0.5
aI1
aF2.5
aI5
aI10
as.