(dp1
S'median_fwhm'
p2
(dp3
S'1t'
p4
(dp5
F0.25
F0.41607894714494237
sF0.5
F0.20864563117942372
sI2
F0.051798360602252826
sI4
F0.025677725016698263
sI6
F0.016871007427324898
sF0.75
F0.13834615395395858
sI1
F0.10403097334362253
sI8
F0.012538011686484241
sI12
F0.0081988235257457708
ssS'3t'
p6
(dp7
F0.25
F7.4058750010171428
sF0.5
F3.7443000050165347
sI2
F0.93473076849001646
sI4
F0.46808823537419852
sI6
F0.31018750010186341
sF0.75
F2.4834999834108178
sI1
F1.8690000002421439
sI8
F0.23383333311445098
sI12
F0.15484374960709832
sssS'scales'
p8
(lp9
F0.25
aF0.5
aF0.75
aI1
aI2
aI4
aI6
aI8
aI12
asS'livetime'
p10
F5
sS'sens_unit'
p11
F1e+27
sS'efficiency'
p12
I1
sS'mass'
p13
I3740
sS'ul_90_fwhm'
p14
(dp15
g4
(dp16
F0.25
F0.48166666581166079
sF0.5
F0.2403205133436794
sI2
F0.059589743302780739
sI4
F0.029669491168510271
sI6
F0.019642857339189201
sF0.75
F0.16026190482832223
sI1
F0.1197073167777736
sI8
F0.014623809611357435
sI12
F0.0095883977517687118
ssg6
(dp17
F0.25
F8.921500069221425
sF0.5
F4.6395000422767199
sI2
F1.153499995735445
sI4
F0.57731818267565271
sI6
F0.38439999963911253
sF0.75
F3.0791666464983591
sI1
F2.3095000074692078
sI8
F0.28949999721433661
sI12
F0.19219230638198095
sssS'sens'
p18
(dp19
F0.25
F4.5118424054479149
sF0.5
F5.8911896712762415
sI2
F9.6147700472120494
sI4
F12.295299484842854
sI6
F13.866258872470041
sF0.75
F6.7035356310008902
sI1
F7.5726754556702573
sI8
F14.706327433066763
sI12
F17.631736324732106
ss.