(dp1
S'median_fwhm'
p2
(dp3
S'1t'
p4
(dp5
S'5.0'
p6
F0.5801515152209531
sS'0.05'
p7
F0.0058267715910937882
sS'2.0'
p8
F0.23206060608838128
sS'1.000'
p9
F0.11603030304419064
sS'10.000'
p10
F1.1612035380660997
sS'0.100'
p11
F0.011603030304419063
sS'0.02'
p12
F0.0023307086364375154
sS'0.5'
p13
F0.058015151522095319
sS'0.2'
p14
F0.023206060608838126
sS'0.00001'
p15
F1.1653543182187579e-06
sS'0.002'
p16
F0.00023307086364375158
sS'0.010'
p17
F0.0011653543182187577
sS'0.0001'
p18
F1.165354318218758e-05
sS'0.0002'
p19
F2.330708636437516e-05
sS'0.005'
p20
F0.00058267715910937886
sS'0.0005'
p21
F5.8267715910937896e-05
sS'0.001'
p22
F0.00011653543182187579
ssS'3t'
p23
(dp24
g6
F10.496166658805398
sg7
F0.10498691480479334
sg8
F4.1984666635221597
sg9
F2.0992333317610798
sg10
F20.993445986197525
sg11
F0.20992333317610798
sg12
F0.041995597960800921
sg13
F1.0496166658805399
sg14
F0.41984666635221596
sg15
F2.0997382960958673e-05
sg16
F0.0041995597960800927
sg17
F0.020997382960958665
sg18
F0.00020997382960958669
sg19
F0.00041995597960800925
sg20
F0.010498691480479333
sg21
F0.0010498691480479334
sg22
F0.0020997382960958669
sssS'scales'
p25
(lp26
g15
ag18
ag19
ag21
ag22
ag16
ag20
ag17
ag12
ag7
ag11
ag14
ag13
ag9
ag8
ag6
ag10
asS'livetime'
p27
F10
sS'sens_unit'
p28
F1e+27
sS'efficiency'
p29
F0.81999999999999995
sS'mass'
p30
I3740
sS'ul_90_fwhm'
p31
(dp32
g4
(dp33
g6
F0.64206896487307541
sg7
F0.0064453560619056501
sg8
F0.25682758594923016
sg9
F0.12841379297461508
sg10
F1.2850366262036359
sg11
F0.01284137929746151
sg12
F0.0025781424247622599
sg13
F0.064206896487307541
sg14
F0.025682758594923021
sg15
F1.2890712123811301e-06
sg16
F0.00025781424247622598
sg17
F0.00128907121238113
sg18
F1.2890712123811304e-05
sg19
F2.5781424247622607e-05
sg20
F0.00064453560619056498
sg21
F6.4453560619056496e-05
sg22
F0.00012890712123811299
ssg23
(dp34
g6
F11.893333306582063
sg7
F0.11895154473996104
sg8
F4.7573333226328263
sg9
F2.3786666613164131
sg10
F23.786499932866199
sg11
F0.23786666613164129
sg12
F0.047580365895984411
sg13
F1.1893333306582066
sg14
F0.47573333226328257
sg15
F2.3790308947992214e-05
sg16
F0.0047580365895984415
sg17
F0.023790308947992209
sg18
F0.00023790308947992212
sg19
F0.00047580365895984417
sg20
F0.011895154473996104
sg21
F0.0011895154473996103
sg22
F0.0023790308947992207
sssS'sens'
p35
(dp36
g6
F4.7553561705123206
sg7
F26.561066822027755
sg8
F6.990420196740323
sg9
F9.1613791869419927
sg10
F3.5482929253482576
sg11
F21.185658089811259
sg12
F34.722280017727492
sg13
F12.100280090624324
sg14
F16.575416259785552
sg15
F62.446200067160149
sg16
F58.539300736099491
sg17
F41.572304050252029
sg18
F62.334319192541322
sg19
F62.300144365344728
sg20
F52.846531227952227
sg21
F62.054375070977507
sg22
F60.370623424661652
ss.