(dp1
S'median_fwhm'
p2
(dp3
S'1t'
p4
(dp5
S'0.010'
p6
F0.0011653543182187577
sS'1.000'
p7
F0.11603030304419064
sS'10.000'
p8
F1.1612035380660997
sS'0.100'
p9
F0.011603030304419063
sS'0.001'
p10
F0.00011653543182187579
ssS'3t'
p11
(dp12
g6
F0.020997382960958665
sg7
F2.0992333317610798
sg8
F20.993445986197525
sg9
F0.20992333317610798
sg10
F0.0020997382960958669
sssS'scales'
p13
(lp14
g10
ag6
ag9
ag7
ag8
asS'livetime'
p15
F10
sS'sens_unit'
p16
F1e+27
sS'efficiency'
p17
F0.81999999999999995
sS'mass'
p18
I3740
sS'ul_90_fwhm'
p19
(dp20
g4
(dp21
g6
F0.00128907121238113
sg7
F0.12841379297461508
sg8
F1.2850366262036359
sg9
F0.01284137929746151
sg10
F0.00012890712123811299
ssg11
(dp22
g6
F0.023790308947992209
sg7
F2.3786666613164131
sg8
F23.786499932866199
sg9
F0.23786666613164129
sg10
F0.0023790308947992207
sssS'sens'
p23
(dp24
g6
F41.572304050252029
sg7
F9.1613791869419927
sg8
F3.5482929253482576
sg9
F21.185658089811259
sg10
F60.370623424661652
ss.