(dp1
S'median_fwhm'
p2
(dp3
S'1t'
p4
(dp5
S'0.05'
p6
F0.0058267715910937882
sS'0.2'
p7
F0.023206060608838126
sS'10'
p8
F1.1612035380660997
sS'0.02'
p9
F0.0023307086364375154
sS'0.5'
p10
F0.058015151522095319
sS'0.01'
p11
F0.0011653543182187577
sS'0.00001'
p12
F1.1653543182187579e-06
sS'0.002'
p13
F0.00023307086364375158
sS'1'
F0.11603030304419064
sS'0.1'
p14
F0.011603030304419063
sS'2'
F0.23206060608838128
sS'5'
F0.5801515152209531
sS'0.0001'
p15
F1.165354318218758e-05
sS'0.0002'
p16
F2.330708636437516e-05
sS'0.005'
p17
F0.00058267715910937886
sS'0.0005'
p18
F5.8267715910937896e-05
sS'0.001'
p19
F0.00011653543182187579
ssS'3t'
p20
(dp21
g6
F0.10498691480479334
sg7
F0.41984666635221596
sg8
F20.993445986197525
sg9
F0.041995597960800921
sg10
F1.0496166658805399
sg11
F0.020997382960958665
sg12
F2.0997382960958673e-05
sg13
F0.0041995597960800927
sS'1'
F2.0992333317610798
sg14
F0.20992333317610798
sS'2'
F4.1984666635221597
sS'5'
F10.496166658805398
sg15
F0.00020997382960958669
sg16
F0.00041995597960800925
sg17
F0.010498691480479333
sg18
F0.0010498691480479334
sg19
F0.0020997382960958669
sssS'scales'
p22
(lp23
g12
ag15
ag16
ag18
ag19
ag13
ag17
ag11
ag9
ag6
ag14
ag7
ag10
aS'1'
aS'2'
aS'5'
ag8
asS'livetime'
p24
F10
sS'sens_unit'
p25
F1e+27
sS'efficiency'
p26
F0.81999999999999995
sS'mass'
p27
I3740
sS'ul_90_fwhm'
p28
(dp29
g4
(dp30
g6
F0.0064453560619056501
sg7
F0.025682758594923021
sg8
F1.2850366262036359
sg9
F0.0025781424247622599
sg10
F0.064206896487307541
sg11
F0.00128907121238113
sg12
F1.2890712123811301e-06
sg13
F0.00025781424247622598
sS'1'
F0.12841379297461508
sg14
F0.01284137929746151
sS'2'
F0.25682758594923016
sS'5'
F0.64206896487307541
sg15
F1.2890712123811304e-05
sg16
F2.5781424247622607e-05
sg17
F0.00064453560619056498
sg18
F6.4453560619056496e-05
sg19
F0.00012890712123811299
ssg20
(dp31
g6
F0.11895154473996104
sg7
F0.47573333226328257
sg8
F23.786499932866199
sg9
F0.047580365895984411
sg10
F1.1893333306582066
sg11
F0.023790308947992209
sg12
F2.3790308947992214e-05
sg13
F0.0047580365895984415
sS'1'
F2.3786666613164131
sg14
F0.23786666613164129
sS'2'
F4.7573333226328263
sS'5'
F11.893333306582063
sg15
F0.00023790308947992212
sg16
F0.00047580365895984417
sg17
F0.011895154473996104
sg18
F0.0011895154473996103
sg19
F0.0023790308947992207
sssS'sens'
p32
(dp33
g6
F23.929722581775838
sg7
F16.11455735250841
sg8
F3.6500549250171224
sg9
F30.341674329567716
sg10
F11.811571662701894
sg11
F34.940595840136204
sg12
F52.611394621815379
sg13
F46.462734670217422
sS'1'
F9.1613791869419927
sg14
F19.694989572541004
sS'2'
F7.1811552706573298
sS'5'
F4.9129791354984302
sg15
F52.936362032748619
sg16
F51.347357656092626
sg17
F40.609847847950824
sg18
F49.958653703535219
sg19
F48.365953468310835
ss.